; Function Attrs: mustprogress uwtable
define hidden void @_ZN11mpf_manager6mk_nanEjjR3mpf(ptr noundef nonnull align 8 dereferenceable(840) %this, i32 noundef %ebits, i32 noundef %sbits, ptr noundef nonnull align 8 dereferenceable(32) %o) local_unnamed_addr #5 align 2 {
entry:
  %ref.tmp.i = alloca %class.mpz, align 8
  %bf.load = load i32, ptr %o, align 8
  %bf.value = shl i32 %sbits, 15
  %bf.shl = and i32 %bf.value, 2147450880
  %bf.clear = and i32 %bf.load, -2147483648
  %bf.value3 = and i32 %ebits, 32767
  %bf.set = or disjoint i32 %bf.shl, %bf.value3
  %bf.set5 = or disjoint i32 %bf.set, %bf.clear
  store i32 %bf.set5, ptr %o, align 8
  %m_mpz_manager.i = getelementptr inbounds i8, ptr %this, i64 728
  %0 = load ptr, ptr %m_mpz_manager.i, align 8
  %m_powers2.i = getelementptr inbounds i8, ptr %this, i64 736
  %sub.i = add i32 %ebits, -1
  %call.i = tail call noundef nonnull align 8 dereferenceable(16) ptr @_ZN11mpf_manager7powers2clEjb(ptr noundef nonnull align 8 dereferenceable(104) %m_powers2.i, i32 noundef %sub.i, i1 noundef zeroext false)
  %call2.i = tail call noundef i64 @_ZNK11mpz_managerILb0EE9get_int64ERK3mpz(ptr noundef nonnull align 8 dereferenceable(600) %0, ptr noundef nonnull align 8 dereferenceable(16) %call.i)
  %exponent = getelementptr inbounds i8, ptr %o, i64 24
  store i64 %call2.i, ptr %exponent, align 8
  %1 = load ptr, ptr %m_mpz_manager.i, align 8
  %significand = getelementptr inbounds i8, ptr %o, i64 8
  %sub = add i32 %sbits, -1
  %call6 = tail call noundef nonnull align 8 dereferenceable(16) ptr @_ZN11mpf_manager7powers2clEjb(ptr noundef nonnull align 8 dereferenceable(104) %m_powers2.i, i32 noundef %sub, i1 noundef zeroext false)
  %m_kind.i.i = getelementptr inbounds i8, ptr %call6, i64 4
  %bf.load.i.i = load i8, ptr %m_kind.i.i, align 4
  %bf.clear.i.i = and i8 %bf.load.i.i, 1
  %cmp.i.i = icmp eq i8 %bf.clear.i.i, 0
  br i1 %cmp.i.i, label %if.then.i, label %if.else.i

if.then.i:                                        ; preds = %entry
  %2 = load i32, ptr %call6, align 8
  store i32 %2, ptr %significand, align 8
  %m_kind.i = getelementptr inbounds i8, ptr %o, i64 12
  %bf.load.i = load i8, ptr %m_kind.i, align 4
  %bf.clear.i = and i8 %bf.load.i, -2
  store i8 %bf.clear.i, ptr %m_kind.i, align 4
  br label %_ZN11mpz_managerILb0EE3setER3mpzRKS1_.exit

if.else.i:                                        ; preds = %entry
  tail call void @_ZN11mpz_managerILb0EE7big_setER3mpzRKS1_(ptr noundef nonnull align 8 dereferenceable(600) %1, ptr noundef nonnull align 8 dereferenceable(16) %significand, ptr noundef nonnull align 8 dereferenceable(16) %call6)
  br label %_ZN11mpz_managerILb0EE3setER3mpzRKS1_.exit

_ZN11mpz_managerILb0EE3setER3mpzRKS1_.exit:       ; preds = %if.then.i, %if.else.i
  %3 = load ptr, ptr %m_mpz_manager.i, align 8
  call void @llvm.lifetime.start.p0(i64 16, ptr nonnull %ref.tmp.i)
  store i32 -1, ptr %ref.tmp.i, align 8
  %m_kind.i.i8 = getelementptr inbounds i8, ptr %ref.tmp.i, i64 4
  store i8 0, ptr %m_kind.i.i8, align 4
  %m_ptr.i.i = getelementptr inbounds i8, ptr %ref.tmp.i, i64 8
  store ptr null, ptr %m_ptr.i.i, align 8
  call void @_ZN11mpz_managerILb0EE3addERK3mpzS3_RS1_(ptr noundef nonnull align 8 dereferenceable(600) %3, ptr noundef nonnull align 8 dereferenceable(16) %significand, ptr noundef nonnull align 8 dereferenceable(16) %ref.tmp.i, ptr noundef nonnull align 8 dereferenceable(16) %significand)
  call void @llvm.lifetime.end.p0(i64 16, ptr nonnull %ref.tmp.i)
  %bf.load9 = load i32, ptr %o, align 8
  %bf.clear10 = and i32 %bf.load9, 2147483647
  store i32 %bf.clear10, ptr %o, align 8
  ret void
}